target datalayout = "e-m:e-p270:32:32-p271:32:32-p272:64:64-i64:64-i128:128-f80:128-n8:16:32:64-S128"
target triple = "x86_64-unknown-linux-gnu"

%struct.QTailQLink = type { ptr, ptr }
%struct.VirtIOSCSIReq = type <{ %struct.VirtQueueElement, ptr, ptr, %struct.QEMUSGList, %struct.QEMUIOVector, %union.anon.6, i32, [4 x i8], ptr, i64, i32, %union.anon.7, %union.anon.8, [4 x i8] }>
%struct.VirtQueueElement = type { i32, i32, i32, i32, i32, ptr, ptr, ptr, ptr }
%struct.QEMUSGList = type { ptr, i32, i32, i64, ptr, ptr }
%struct.QEMUIOVector = type { ptr, i32, %union.anon.4 }
%union.anon.4 = type { %struct.anon }
%struct.anon = type { i32, %struct.iovec }
%struct.iovec = type { ptr, i64 }
%union.anon.6 = type { %struct.QTailQLink }
%union.anon.7 = type { %struct.virtio_scsi_event }
%struct.virtio_scsi_event = type { i32, [8 x i8], i32 }
%union.anon.8 = type { %struct.virtio_scsi_ctrl_tmf_req }
%struct.virtio_scsi_ctrl_tmf_req = type { i32, i32, [8 x i8], i64 }
%struct.SCSIRequest = type { ptr, ptr, ptr, i32, i32, i32, i16, i16, ptr, i64, %struct.SCSICommand, %struct.NotifierList, [252 x i8], i32, i8, i8, i8, i8, ptr, ptr, %union.anon.11 }
%struct.SCSICommand = type { [16 x i8], i32, i64, i64, i32 }
%struct.NotifierList = type { %struct.anon.10 }
%struct.anon.10 = type { ptr }
%union.anon.11 = type { %struct.QTailQLink }
%struct.virtio_scsi_cmd_resp = type { i32, i32, i16, i8, i8, [0 x i8] }

; Function Attrs: nounwind sspstrong uwtable
define internal void @virtio_scsi_command_failed(ptr noundef %r) #0 {
entry:
  %r.addr = alloca ptr, align 8
  %req = alloca ptr, align 8
  store ptr %r, ptr %r.addr, align 8
  %0 = load ptr, ptr %r.addr, align 8
  %hba_private = getelementptr inbounds %struct.SCSIRequest, ptr %0, i32 0, i32 8
  %1 = load ptr, ptr %hba_private, align 8
  store ptr %1, ptr %req, align 8
  %2 = load ptr, ptr %r.addr, align 8
  %io_canceled = getelementptr inbounds %struct.SCSIRequest, ptr %2, i32 0, i32 15
  %3 = load i8, ptr %io_canceled, align 1
  %tobool = trunc i8 %3 to i1
  br i1 %tobool, label %if.then, label %if.end

if.then:                                          ; preds = %entry
  br label %return

if.end:                                           ; preds = %entry
  %4 = load ptr, ptr %req, align 8
  %resp = getelementptr inbounds %struct.VirtIOSCSIReq, ptr %4, i32 0, i32 11
  %status = getelementptr inbounds %struct.virtio_scsi_cmd_resp, ptr %resp, i32 0, i32 3
  store i8 0, ptr %status, align 2
  %5 = load ptr, ptr %r.addr, align 8
  %host_status = getelementptr inbounds %struct.SCSIRequest, ptr %5, i32 0, i32 7
  %6 = load i16, ptr %host_status, align 2
  %conv = sext i16 %6 to i32
  switch i32 %conv, label %sw.default [
    i32 1, label %sw.bb
    i32 2, label %sw.bb2
    i32 3, label %sw.bb5
    i32 5, label %sw.bb5
    i32 4, label %sw.bb8
    i32 8, label %sw.bb11
    i32 14, label %sw.bb14
    i32 16, label %sw.bb17
    i32 17, label %sw.bb20
    i32 18, label %sw.bb23
    i32 19, label %sw.bb23
    i32 7, label %sw.bb23
  ]

sw.bb:                                            ; preds = %if.end
  %7 = load ptr, ptr %req, align 8
  %resp1 = getelementptr inbounds %struct.VirtIOSCSIReq, ptr %7, i32 0, i32 11
  %response = getelementptr inbounds %struct.virtio_scsi_cmd_resp, ptr %resp1, i32 0, i32 4
  store i8 12, ptr %response, align 1
  br label %sw.epilog

sw.bb2:                                           ; preds = %if.end
  %8 = load ptr, ptr %req, align 8
  %resp3 = getelementptr inbounds %struct.VirtIOSCSIReq, ptr %8, i32 0, i32 11
  %response4 = getelementptr inbounds %struct.virtio_scsi_cmd_resp, ptr %resp3, i32 0, i32 4
  store i8 5, ptr %response4, align 1
  br label %sw.epilog

sw.bb5:                                           ; preds = %if.end, %if.end
  %9 = load ptr, ptr %req, align 8
  %resp6 = getelementptr inbounds %struct.VirtIOSCSIReq, ptr %9, i32 0, i32 11
  %response7 = getelementptr inbounds %struct.virtio_scsi_cmd_resp, ptr %resp6, i32 0, i32 4
  store i8 2, ptr %response7, align 1
  br label %sw.epilog

sw.bb8:                                           ; preds = %if.end
  %10 = load ptr, ptr %req, align 8
  %resp9 = getelementptr inbounds %struct.VirtIOSCSIReq, ptr %10, i32 0, i32 11
  %response10 = getelementptr inbounds %struct.virtio_scsi_cmd_resp, ptr %resp9, i32 0, i32 4
  store i8 3, ptr %response10, align 1
  br label %sw.epilog

sw.bb11:                                          ; preds = %if.end
  %11 = load ptr, ptr %req, align 8
  %resp12 = getelementptr inbounds %struct.VirtIOSCSIReq, ptr %11, i32 0, i32 11
  %response13 = getelementptr inbounds %struct.virtio_scsi_cmd_resp, ptr %resp12, i32 0, i32 4
  store i8 4, ptr %response13, align 1
  br label %sw.epilog

sw.bb14:                                          ; preds = %if.end
  %12 = load ptr, ptr %req, align 8
  %resp15 = getelementptr inbounds %struct.VirtIOSCSIReq, ptr %12, i32 0, i32 11
  %response16 = getelementptr inbounds %struct.virtio_scsi_cmd_resp, ptr %resp15, i32 0, i32 4
  store i8 6, ptr %response16, align 1
  br label %sw.epilog

sw.bb17:                                          ; preds = %if.end
  %13 = load ptr, ptr %req, align 8
  %resp18 = getelementptr inbounds %struct.VirtIOSCSIReq, ptr %13, i32 0, i32 11
  %response19 = getelementptr inbounds %struct.virtio_scsi_cmd_resp, ptr %resp18, i32 0, i32 4
  store i8 7, ptr %response19, align 1
  br label %sw.epilog

sw.bb20:                                          ; preds = %if.end
  %14 = load ptr, ptr %req, align 8
  %resp21 = getelementptr inbounds %struct.VirtIOSCSIReq, ptr %14, i32 0, i32 11
  %response22 = getelementptr inbounds %struct.virtio_scsi_cmd_resp, ptr %resp21, i32 0, i32 4
  store i8 8, ptr %response22, align 1
  br label %sw.epilog

sw.bb23:                                          ; preds = %if.end, %if.end, %if.end
  br label %sw.default

sw.default:                                       ; preds = %sw.bb23, %if.end
  %15 = load ptr, ptr %req, align 8
  %resp24 = getelementptr inbounds %struct.VirtIOSCSIReq, ptr %15, i32 0, i32 11
  %response25 = getelementptr inbounds %struct.virtio_scsi_cmd_resp, ptr %resp24, i32 0, i32 4
  store i8 9, ptr %response25, align 1
  br label %sw.epilog

sw.epilog:                                        ; preds = %sw.default, %sw.bb20, %sw.bb17, %sw.bb14, %sw.bb11, %sw.bb8, %sw.bb5, %sw.bb2, %sw.bb
  %16 = load ptr, ptr %req, align 8
  call void @virtio_scsi_complete_cmd_req(ptr noundef %16)
  br label %return

return:                                           ; preds = %sw.epilog, %if.then
  ret void
}