; Function Attrs: nounwind sspstrong uwtable
define internal void @virtio_scsi_command_failed(ptr noundef readonly captures(none) %r) #0 {
entry:
  %hba_private = getelementptr inbounds nuw i8, ptr %r, i64 40
  %0 = load ptr, ptr %hba_private, align 8
  %io_canceled = getelementptr inbounds nuw i8, ptr %r, i64 369
  %1 = load i8, ptr %io_canceled, align 1
  %tobool = trunc i8 %1 to i1
  br i1 %tobool, label %return, label %if.end

if.end:                                           ; preds = %entry
  %status = getelementptr inbounds nuw i8, ptr %0, i64 206
  store i8 0, ptr %status, align 2
  %host_status = getelementptr inbounds nuw i8, ptr %r, i64 38
  %2 = load i16, ptr %host_status, align 2
  %switch.tableidx = add i16 %2, -1
  %3 = icmp ult i16 %switch.tableidx, 17
  br i1 %3, label %switch.lookup, label %sw.epilog

switch.lookup:                                    ; preds = %if.end
  %4 = zext nneg i16 %switch.tableidx to i64
  %switch.gep = getelementptr inbounds nuw [17 x i8], ptr @switch.table.virtio_scsi_command_failed, i64 0, i64 %4
  %switch.load = load i8, ptr %switch.gep, align 1
  br label %sw.epilog

sw.epilog:                                        ; preds = %if.end, %switch.lookup
  %.sink = phi i8 [ %switch.load, %switch.lookup ], [ 9, %if.end ]
  %response25 = getelementptr inbounds nuw i8, ptr %0, i64 207
  store i8 %.sink, ptr %response25, align 1
  tail call fastcc void @virtio_scsi_complete_cmd_req(ptr noundef nonnull %0)
  br label %return

return:                                           ; preds = %entry, %sw.epilog
  ret void
}